target datalayout = "e-m:e-p270:32:32-p271:32:32-p272:64:64-i64:64-i128:128-f80:128-n8:16:32:64-S128"
target triple = "x86_64-pc-linux-gnu"

@proto_register_z21.ett = internal global [1 x ptr] [ptr @ett_z21], align 8
@.str.323 = private unnamed_addr constant [17 x i8] c"Z21 LAN Protocol\00", align 1
@.str.324 = private unnamed_addr constant [4 x i8] c"Z21\00", align 1
@.str.325 = private unnamed_addr constant [4 x i8] c"z21\00", align 1
@proto_z21 = internal global i32 0, align 4
@z21_handle = internal global ptr null, align 8

; Function Attrs: null_pointer_is_valid sspstrong uwtable
define hidden void @proto_register_z21() #0 {
  %1 = alloca ptr, align 8
  call void @llvm.lifetime.start.p0(i64 8, ptr %1) #3
  %2 = call i32 @proto_register_protocol(ptr noundef @.str.323, ptr noundef @.str.324, ptr noundef @.str.325)
  store i32 %2, ptr @proto_z21, align 4
  %3 = load i32, ptr @proto_z21, align 4
  call void @proto_register_field_array(i32 noundef %3, ptr noundef @proto_register_z21.hf, i32 noundef 161)
  call void @proto_register_subtree_array(ptr noundef @proto_register_z21.ett, i32 noundef 1)
  %4 = load i32, ptr @proto_z21, align 4
  %5 = call ptr @expert_register_protocol(i32 noundef %4)
  store ptr %5, ptr %1, align 8
  %6 = load ptr, ptr %1, align 8
  call void @expert_register_field_array(ptr noundef %6, ptr noundef @proto_register_z21.ei, i32 noundef 1)
  %7 = load i32, ptr @proto_z21, align 4
  %8 = call ptr @register_dissector(ptr noundef @.str.325, ptr noundef @dissect_z21, i32 noundef %7)
  store ptr %8, ptr @z21_handle, align 8
  %9 = load i32, ptr @proto_z21, align 4
  %10 = call ptr @prefs_register_protocol(i32 noundef %9, ptr noundef @proto_reg_handoff_z21)
  call void @llvm.lifetime.end.p0(i64 8, ptr %1) #3
  ret void
}